target datalayout = "e-m:e-p270:32:32-p271:32:32-p272:64:64-i64:64-i128:128-f80:128-n8:16:32:64-S128"
target triple = "x86_64-pc-linux-gnu"

%"struct.icu_77::Norm" = type { ptr, ptr, i32, i32, i32, ptr, i8, i8, i8, i8, i8, i8, i32, i32, ptr }
%"class.icu_77::Norms" = type { %"class.icu_77::UnicodeSet", %"class.icu_77::UnicodeSet", ptr, ptr, ptr }
%"class.icu_77::UnicodeSet" = type <{ %"class.icu_77::UnicodeFilter", ptr, i32, i32, i8, [7 x i8], ptr, ptr, i32, [4 x i8], ptr, i32, [4 x i8], ptr, ptr, [25 x i32], [4 x i8] }>
%"class.icu_77::UnicodeFilter" = type { %"class.icu_77::UnicodeFunctor", %"class.icu_77::UnicodeMatcher" }
%"class.icu_77::UnicodeFunctor" = type { %"class.icu_77::UObject" }
%"class.icu_77::UObject" = type { ptr }
%"class.icu_77::UnicodeMatcher" = type { ptr }
%"class.icu_77::IcuToolErrorCode" = type { %"class.icu_77::ErrorCode.base", ptr }
%"class.icu_77::ErrorCode.base" = type <{ ptr, i32 }>
%"class.icu_77::ErrorCode" = type <{ ptr, i32, [4 x i8] }>

@.str.1 = private unnamed_addr constant [22 x i8] c"gennorm2/createNorm()\00", align 1
@_ZTVN6icu_7716IcuToolErrorCodeE = available_externally unnamed_addr constant { [5 x ptr] } { [5 x ptr] [ptr null, ptr @_ZTIN6icu_7716IcuToolErrorCodeE, ptr @_ZN6icu_7716IcuToolErrorCodeD1Ev, ptr @_ZN6icu_7716IcuToolErrorCodeD0Ev, ptr @_ZNK6icu_7716IcuToolErrorCode13handleFailureEv] }, align 8
@_ZTVN6icu_779ErrorCodeE = external unnamed_addr constant { [5 x ptr] }, align 8

; Function Attrs: mustprogress nounwind uwtable
define linkonce_odr dso_local void @_ZN6icu_779ErrorCodeC2Ev(ptr noundef nonnull align 8 dereferenceable(12) %0) unnamed_addr #1 comdat align 2 {
  %2 = alloca ptr, align 8
  store ptr %0, ptr %2, align 8, !tbaa !69
  %3 = load ptr, ptr %2, align 8
  store ptr getelementptr inbounds inrange(-16, 24) ({ [5 x ptr] }, ptr @_ZTVN6icu_779ErrorCodeE, i32 0, i32 0, i32 2), ptr %3, align 8, !tbaa !58
  %4 = getelementptr inbounds nuw %"class.icu_77::ErrorCode", ptr %3, i32 0, i32 1
  store i32 0, ptr %4, align 8, !tbaa !106
  ret void
}

; Function Attrs: mustprogress nounwind uwtable
define linkonce_odr dso_local noundef ptr @_ZN6icu_779ErrorCodecvP10UErrorCodeEv(ptr noundef nonnull align 8 dereferenceable(12) %0) #1 comdat align 2 {
  %2 = alloca ptr, align 8
  store ptr %0, ptr %2, align 8, !tbaa !69
  %3 = load ptr, ptr %2, align 8
  %4 = getelementptr inbounds nuw %"class.icu_77::ErrorCode", ptr %3, i32 0, i32 1
  ret ptr %4
}

; Function Attrs: mustprogress uwtable
define linkonce_odr dso_local void @_ZN6icu_7716IcuToolErrorCodeC2EPKc(ptr noundef nonnull align 8 dereferenceable(24) %0, ptr noundef %1) unnamed_addr #0 comdat align 2 {
  %3 = alloca ptr, align 8
  %4 = alloca ptr, align 8
  store ptr %0, ptr %3, align 8, !tbaa !62
  store ptr %1, ptr %4, align 8, !tbaa !64
  %5 = load ptr, ptr %3, align 8
  call void @_ZN6icu_779ErrorCodeC2Ev(ptr noundef nonnull align 8 dereferenceable(12) %5)
  store ptr getelementptr inbounds inrange(-16, 24) ({ [5 x ptr] }, ptr @_ZTVN6icu_7716IcuToolErrorCodeE, i32 0, i32 0, i32 2), ptr %5, align 8, !tbaa !58
  %6 = getelementptr inbounds nuw %"class.icu_77::IcuToolErrorCode", ptr %5, i32 0, i32 1
  %7 = load ptr, ptr %4, align 8, !tbaa !64
  store ptr %7, ptr %6, align 8, !tbaa !65
  ret void
}

; Function Attrs: mustprogress uwtable
define dso_local noundef ptr @_ZN6icu_775Norms9allocNormEv(ptr noundef nonnull align 8 dereferenceable(424) %0) #0 align 2 {
  %2 = alloca ptr, align 8
  %3 = alloca ptr, align 8
  store ptr %0, ptr %2, align 8, !tbaa !38
  %4 = load ptr, ptr %2, align 8
  call void @llvm.lifetime.start.p0(i64 8, ptr %3) #11
  %5 = getelementptr inbounds nuw %"class.icu_77::Norms", ptr %4, i32 0, i32 3
  %6 = load ptr, ptr %5, align 8, !tbaa !54
  %7 = call ptr @utm_alloc(ptr noundef %6)
  store ptr %7, ptr %3, align 8, !tbaa !22
  %8 = getelementptr inbounds nuw %"class.icu_77::Norms", ptr %4, i32 0, i32 3
  %9 = load ptr, ptr %8, align 8, !tbaa !54
  %10 = call ptr @utm_getStart(ptr noundef %9)
  %11 = getelementptr inbounds nuw %"class.icu_77::Norms", ptr %4, i32 0, i32 4
  store ptr %10, ptr %11, align 8, !tbaa !55
  %12 = load ptr, ptr %3, align 8, !tbaa !22
  call void @llvm.lifetime.end.p0(i64 8, ptr %3) #11
  ret ptr %12
}

; Function Attrs: mustprogress uwtable
define dso_local noundef ptr @_ZN6icu_775Norms10createNormEi(ptr noundef nonnull align 8 dereferenceable(424) %0, i32 noundef %1) #0 align 2 personality ptr @__gxx_personality_v0 {
  %3 = alloca ptr, align 8
  %4 = alloca ptr, align 8
  %5 = alloca i32, align 4
  %6 = alloca i32, align 4
  %7 = alloca i32, align 4
  %8 = alloca ptr, align 8
  %9 = alloca %"class.icu_77::IcuToolErrorCode", align 8
  %10 = alloca ptr, align 8
  %11 = alloca i32, align 4
  store ptr %0, ptr %4, align 8, !tbaa !38
  store i32 %1, ptr %5, align 4, !tbaa !9
  %12 = load ptr, ptr %4, align 8
  call void @llvm.lifetime.start.p0(i64 4, ptr %6) #11
  %13 = getelementptr inbounds nuw %"class.icu_77::Norms", ptr %12, i32 0, i32 2
  %14 = load ptr, ptr %13, align 8, !tbaa !41
  %15 = load i32, ptr %5, align 4, !tbaa !9
  %16 = call i32 @umutablecptrie_get_77(ptr noundef %14, i32 noundef %15)
  store i32 %16, ptr %6, align 4, !tbaa !9
  %17 = load i32, ptr %6, align 4, !tbaa !9
  %18 = icmp ne i32 %17, 0
  br i1 %18, label %19, label %25

19:                                               ; preds = %2
  %20 = getelementptr inbounds nuw %"class.icu_77::Norms", ptr %12, i32 0, i32 4
  %21 = load ptr, ptr %20, align 8, !tbaa !55
  %22 = load i32, ptr %6, align 4, !tbaa !9
  %23 = zext i32 %22 to i64
  %24 = getelementptr inbounds nuw %"struct.icu_77::Norm", ptr %21, i64 %23
  store ptr %24, ptr %3, align 8
  store i32 1, ptr %7, align 4
  br label %46

25:                                               ; preds = %2
  call void @llvm.lifetime.start.p0(i64 8, ptr %8) #11
  %26 = call noundef ptr @_ZN6icu_775Norms9allocNormEv(ptr noundef nonnull align 8 dereferenceable(424) %12)
  store ptr %26, ptr %8, align 8, !tbaa !22
  call void @llvm.lifetime.start.p0(i64 24, ptr %9) #11
  call void @_ZN6icu_7716IcuToolErrorCodeC2EPKc(ptr noundef nonnull align 8 dereferenceable(24) %9, ptr noundef @.str.1)
  %27 = getelementptr inbounds nuw %"class.icu_77::Norms", ptr %12, i32 0, i32 2
  %28 = load ptr, ptr %27, align 8, !tbaa !41
  %29 = load i32, ptr %5, align 4, !tbaa !9
  %30 = load ptr, ptr %8, align 8, !tbaa !22
  %31 = getelementptr inbounds nuw %"class.icu_77::Norms", ptr %12, i32 0, i32 4
  %32 = load ptr, ptr %31, align 8, !tbaa !55
  %33 = ptrtoint ptr %30 to i64
  %34 = ptrtoint ptr %32 to i64
  %35 = sub i64 %33, %34
  %36 = sdiv exact i64 %35, 64
  %37 = trunc i64 %36 to i32
  %38 = invoke noundef ptr @_ZN6icu_779ErrorCodecvP10UErrorCodeEv(ptr noundef nonnull align 8 dereferenceable(12) %9)
          to label %39 unwind label %42

39:                                               ; preds = %25
  invoke void @umutablecptrie_set_77(ptr noundef %28, i32 noundef %29, i32 noundef %37, ptr noundef %38)
          to label %40 unwind label %42

40:                                               ; preds = %39
  %41 = load ptr, ptr %8, align 8, !tbaa !22
  store ptr %41, ptr %3, align 8
  store i32 1, ptr %7, align 4
  call void @_ZN6icu_7716IcuToolErrorCodeD1Ev(ptr noundef nonnull align 8 dereferenceable(24) %9) #11
  call void @llvm.lifetime.end.p0(i64 24, ptr %9) #11
  call void @llvm.lifetime.end.p0(i64 8, ptr %8) #11
  br label %46

42:                                               ; preds = %39, %25
  %43 = landingpad { ptr, i32 }
          cleanup
  %44 = extractvalue { ptr, i32 } %43, 0
  store ptr %44, ptr %10, align 8
  %45 = extractvalue { ptr, i32 } %43, 1
  store i32 %45, ptr %11, align 4
  call void @_ZN6icu_7716IcuToolErrorCodeD1Ev(ptr noundef nonnull align 8 dereferenceable(24) %9) #11
  call void @llvm.lifetime.end.p0(i64 24, ptr %9) #11
  call void @llvm.lifetime.end.p0(i64 8, ptr %8) #11
  call void @llvm.lifetime.end.p0(i64 4, ptr %6) #11
  br label %48

46:                                               ; preds = %40, %19
  call void @llvm.lifetime.end.p0(i64 4, ptr %6) #11
  %47 = load ptr, ptr %3, align 8
  ret ptr %47

48:                                               ; preds = %42
  %49 = load ptr, ptr %10, align 8
  %50 = load i32, ptr %11, align 4
  %51 = insertvalue { ptr, i32 } poison, ptr %49, 0
  %52 = insertvalue { ptr, i32 } %51, i32 %50, 1
  resume { ptr, i32 } %52
}