; Function Attrs: mustprogress uwtable
define dso_local noundef ptr @_ZN6icu_775Norms10createNormEi(ptr noundef nonnull align 8 captures(none) dereferenceable(424) %0, i32 noundef %1) local_unnamed_addr #2 align 2 personality ptr @__gxx_personality_v0 {
  %3 = alloca %"class.icu_77::IcuToolErrorCode", align 8
  %4 = getelementptr inbounds nuw i8, ptr %0, i64 400
  %5 = load ptr, ptr %4, align 8, !tbaa !34
  %6 = tail call i32 @umutablecptrie_get_77(ptr noundef %5, i32 noundef %1)
  %.not = icmp eq i32 %6, 0
  br i1 %.not, label %12, label %7

7:                                                ; preds = %2
  %8 = getelementptr inbounds nuw i8, ptr %0, i64 416
  %9 = load ptr, ptr %8, align 8, !tbaa !48
  %10 = zext i32 %6 to i64
  %11 = getelementptr inbounds nuw %"struct.icu_77::Norm", ptr %9, i64 %10
  br label %30

12:                                               ; preds = %2
  %13 = getelementptr inbounds nuw i8, ptr %0, i64 408
  %14 = load ptr, ptr %13, align 8, !tbaa !47
  %15 = tail call ptr @utm_alloc(ptr noundef %14)
  %16 = load ptr, ptr %13, align 8, !tbaa !47
  %17 = tail call ptr @utm_getStart(ptr noundef %16)
  %18 = getelementptr inbounds nuw i8, ptr %0, i64 416
  store ptr %17, ptr %18, align 8, !tbaa !48
  call void @llvm.lifetime.start.p0(i64 24, ptr nonnull %3) #18
  %19 = getelementptr inbounds nuw i8, ptr %3, i64 8
  store i32 0, ptr %19, align 8, !tbaa !55
  store ptr getelementptr inbounds nuw inrange(-16, 24) (i8, ptr @_ZTVN6icu_7716IcuToolErrorCodeE, i64 16), ptr %3, align 8, !tbaa !51
  %20 = getelementptr inbounds nuw i8, ptr %3, i64 16
  store ptr @.str.1, ptr %20, align 8, !tbaa !58
  %21 = load ptr, ptr %4, align 8, !tbaa !34
  %22 = ptrtoint ptr %15 to i64
  %23 = ptrtoint ptr %17 to i64
  %24 = sub i64 %22, %23
  %25 = lshr exact i64 %24, 6
  %26 = trunc i64 %25 to i32
  invoke void @umutablecptrie_set_77(ptr noundef %21, i32 noundef %1, i32 noundef %26, ptr noundef nonnull %19)
          to label %27 unwind label %28

27:                                               ; preds = %12
  call void @_ZN6icu_7716IcuToolErrorCodeD1Ev(ptr noundef nonnull align 8 dereferenceable(24) %3) #18
  call void @llvm.lifetime.end.p0(i64 24, ptr nonnull %3) #18
  br label %30

28:                                               ; preds = %12
  %29 = landingpad { ptr, i32 }
          cleanup
  call void @_ZN6icu_7716IcuToolErrorCodeD1Ev(ptr noundef nonnull align 8 dereferenceable(24) %3) #18
  call void @llvm.lifetime.end.p0(i64 24, ptr nonnull %3) #18
  resume { ptr, i32 } %29

30:                                               ; preds = %27, %7
  %.0 = phi ptr [ %11, %7 ], [ %15, %27 ]
  ret ptr %.0
}